; Function Attrs: mustprogress nofree norecurse nosync nounwind willreturn memory(argmem: readwrite) uwtable
define internal noundef zeroext i1 @"_ZNSt17_Function_handlerIFvRKN4pbrt5TokenEPKcEZZNS0_5parseEPNS0_12ParserTargetESt10unique_ptrINS0_9TokenizerESt14default_deleteISA_EEENK3$_1clEMS7_FvRKNSt7__cxx1112basic_stringIcSt11char_traitsIcESaIcEEENS0_13InlinedVectorIPNS0_15ParsedParameterELi8EN4pstd3pmr21polymorphic_allocatorISP_EEEENS0_7FileLocEESV_EUlS3_S5_E_E10_M_managerERSt9_Any_dataRKS10_St18_Manager_operation"(ptr nocapture noundef nonnull writeonly align 8 dereferenceable(16) %__dest, ptr noundef nonnull align 8 dereferenceable(16) %__source, i32 noundef %__op) #21 align 2 personality ptr @__gxx_personality_v0 {
entry:
  switch i32 %__op, label %sw.epilog [
    i32 0, label %sw.bb
    i32 1, label %sw.bb1
    i32 2, label %sw.bb4.i
  ]

sw.bb:                                            ; preds = %entry
  store ptr @"_ZTIZZN4pbrt5parseEPNS_12ParserTargetESt10unique_ptrINS_9TokenizerESt14default_deleteIS3_EEENK3$_1clEMS0_FvRKNSt7__cxx1112basic_stringIcSt11char_traitsIcESaIcEEENS_13InlinedVectorIPNS_15ParsedParameterELi8EN4pstd3pmr21polymorphic_allocatorISI_EEEENS_7FileLocEESO_EUlRKNS_5TokenEPKcE_", ptr %__dest, align 8
  br label %sw.epilog

sw.bb1:                                           ; preds = %entry
  store ptr %__source, ptr %__dest, align 8
  br label %sw.epilog

sw.bb4.i:                                         ; preds = %entry
  %call5.val.i = load i64, ptr %__source, align 8
  store i64 %call5.val.i, ptr %__dest, align 8
  br label %sw.epilog

sw.epilog:                                        ; preds = %entry, %sw.bb4.i, %sw.bb1, %sw.bb
  ret i1 false
}